
./test:     file format elf64-x86-64

SYMBOL TABLE:
0000000000400238 l    d  .interp	0000000000000000              .interp
0000000000400254 l    d  .note.ABI-tag	0000000000000000              .note.ABI-tag
0000000000400274 l    d  .note.gnu.build-id	0000000000000000              .note.gnu.build-id
0000000000400298 l    d  .gnu.hash	0000000000000000              .gnu.hash
00000000004002b8 l    d  .dynsym	0000000000000000              .dynsym
0000000000400348 l    d  .dynstr	0000000000000000              .dynstr
00000000004003aa l    d  .gnu.version	0000000000000000              .gnu.version
00000000004003b8 l    d  .gnu.version_r	0000000000000000              .gnu.version_r
00000000004003e8 l    d  .rela.dyn	0000000000000000              .rela.dyn
0000000000400400 l    d  .rela.plt	0000000000000000              .rela.plt
0000000000400460 l    d  .init	0000000000000000              .init
0000000000400480 l    d  .plt	0000000000000000              .plt
00000000004004d0 l    d  .text	0000000000000000              .text
0000000000400708 l    d  .fini	0000000000000000              .fini
0000000000400718 l    d  .rodata	0000000000000000              .rodata
0000000000400730 l    d  .eh_frame_hdr	0000000000000000              .eh_frame_hdr
0000000000400770 l    d  .eh_frame	0000000000000000              .eh_frame
0000000000600e28 l    d  .ctors	0000000000000000              .ctors
0000000000600e38 l    d  .dtors	0000000000000000              .dtors
0000000000600e48 l    d  .jcr	0000000000000000              .jcr
0000000000600e50 l    d  .dynamic	0000000000000000              .dynamic
0000000000600fe0 l    d  .got	0000000000000000              .got
0000000000600fe8 l    d  .got.plt	0000000000000000              .got.plt
0000000000601020 l    d  .data	0000000000000000              .data
0000000000601030 l    d  .bss	0000000000000000              .bss
0000000000000000 l    d  .comment	0000000000000000              .comment
0000000000000000 l    d  .debug_aranges	0000000000000000              .debug_aranges
0000000000000000 l    d  .debug_info	0000000000000000              .debug_info
0000000000000000 l    d  .debug_abbrev	0000000000000000              .debug_abbrev
0000000000000000 l    d  .debug_line	0000000000000000              .debug_line
0000000000000000 l    d  .debug_str	0000000000000000              .debug_str
0000000000000000 l    d  .debug_loc	0000000000000000              .debug_loc
00000000004004fc l     F .text	0000000000000000              call_gmon_start
0000000000000000 l    df *ABS*	0000000000000000              crtstuff.c
0000000000600e28 l     O .ctors	0000000000000000              __CTOR_LIST__
0000000000600e38 l     O .dtors	0000000000000000              __DTOR_LIST__
0000000000600e48 l     O .jcr	0000000000000000              __JCR_LIST__
0000000000400520 l     F .text	0000000000000000              __do_global_dtors_aux
0000000000601030 l     O .bss	0000000000000001              completed.6531
0000000000601038 l     O .bss	0000000000000008              dtor_idx.6533
0000000000400590 l     F .text	0000000000000000              frame_dummy
0000000000000000 l    df *ABS*	0000000000000000              crtstuff.c
0000000000600e30 l     O .ctors	0000000000000000              __CTOR_END__
0000000000400850 l     O .eh_frame	0000000000000000              __FRAME_END__
0000000000600e48 l     O .jcr	0000000000000000              __JCR_END__
00000000004006d0 l     F .text	0000000000000000              __do_global_ctors_aux
0000000000000000 l    df *ABS*	0000000000000000              stackSmash.c
0000000000600e24 l       .ctors	0000000000000000              __init_array_end
0000000000600e50 l     O .dynamic	0000000000000000              _DYNAMIC
0000000000600e24 l       .ctors	0000000000000000              __init_array_start
0000000000600fe8 l     O .got.plt	0000000000000000              _GLOBAL_OFFSET_TABLE_
00000000004006c0 g     F .text	0000000000000002              __libc_csu_fini
0000000000601020  w      .data	0000000000000000              data_start
0000000000000000       F *UND*	0000000000000000              strcpy@@GLIBC_2.2.5
0000000000601030 g       *ABS*	0000000000000000              _edata
00000000004005b4 g     F .text	0000000000000044              bar
0000000000400708 g     F .fini	0000000000000000              _fini
0000000000000000       F *UND*	0000000000000000              __stack_chk_fail@@GLIBC_2.4
0000000000000000       F *UND*	0000000000000000              printf@@GLIBC_2.2.5
0000000000600e40 g     O .dtors	0000000000000000              .hidden __DTOR_END__
0000000000000000       F *UND*	0000000000000000              __libc_start_main@@GLIBC_2.2.5
0000000000601020 g       .data	0000000000000000              __data_start
0000000000000000  w      *UND*	0000000000000000              __gmon_start__
0000000000601028 g     O .data	0000000000000000              .hidden __dso_handle
0000000000400718 g     O .rodata	0000000000000004              _IO_stdin_used
0000000000400630 g     F .text	0000000000000089              __libc_csu_init
00000000004005f8 g     F .text	0000000000000018              foo
0000000000601040 g       *ABS*	0000000000000000              _end
00000000004004d0 g     F .text	0000000000000000              _start
0000000000601030 g       *ABS*	0000000000000000              __bss_start
0000000000400610 g     F .text	000000000000001f              main
0000000000000000  w      *UND*	0000000000000000              _Jv_RegisterClasses
0000000000400460 g     F .init	0000000000000000              _init



Disassembly of section .init:

0000000000400460 <_init>:
  400460:	48 83 ec 08          	sub    $0x8,%rsp
  400464:	e8 93 00 00 00       	callq  4004fc <call_gmon_start>
  400469:	e8 22 01 00 00       	callq  400590 <frame_dummy>
  40046e:	e8 5d 02 00 00       	callq  4006d0 <__do_global_ctors_aux>
  400473:	48 83 c4 08          	add    $0x8,%rsp
  400477:	c3                   	retq   

Disassembly of section .plt:

0000000000400480 <strcpy@plt-0x10>:
  400480:	ff 35 6a 0b 20 00    	pushq  0x200b6a(%rip)        # 600ff0 <_GLOBAL_OFFSET_TABLE_+0x8>
  400486:	ff 25 6c 0b 20 00    	jmpq   *0x200b6c(%rip)        # 600ff8 <_GLOBAL_OFFSET_TABLE_+0x10>
  40048c:	0f 1f 40 00          	nopl   0x0(%rax)

0000000000400490 <strcpy@plt>:
  400490:	ff 25 6a 0b 20 00    	jmpq   *0x200b6a(%rip)        # 601000 <_GLOBAL_OFFSET_TABLE_+0x18>
  400496:	68 00 00 00 00       	pushq  $0x0
  40049b:	e9 e0 ff ff ff       	jmpq   400480 <_init+0x20>

00000000004004a0 <__stack_chk_fail@plt>:
  4004a0:	ff 25 62 0b 20 00    	jmpq   *0x200b62(%rip)        # 601008 <_GLOBAL_OFFSET_TABLE_+0x20>
  4004a6:	68 01 00 00 00       	pushq  $0x1
  4004ab:	e9 d0 ff ff ff       	jmpq   400480 <_init+0x20>

00000000004004b0 <printf@plt>:
  4004b0:	ff 25 5a 0b 20 00    	jmpq   *0x200b5a(%rip)        # 601010 <_GLOBAL_OFFSET_TABLE_+0x28>
  4004b6:	68 02 00 00 00       	pushq  $0x2
  4004bb:	e9 c0 ff ff ff       	jmpq   400480 <_init+0x20>

00000000004004c0 <__libc_start_main@plt>:
  4004c0:	ff 25 52 0b 20 00    	jmpq   *0x200b52(%rip)        # 601018 <_GLOBAL_OFFSET_TABLE_+0x30>
  4004c6:	68 03 00 00 00       	pushq  $0x3
  4004cb:	e9 b0 ff ff ff       	jmpq   400480 <_init+0x20>

Disassembly of section .text:

00000000004004d0 <_start>:
  4004d0:	31 ed                	xor    %ebp,%ebp
  4004d2:	49 89 d1             	mov    %rdx,%r9
  4004d5:	5e                   	pop    %rsi
  4004d6:	48 89 e2             	mov    %rsp,%rdx
  4004d9:	48 83 e4 f0          	and    $0xfffffffffffffff0,%rsp
  4004dd:	50                   	push   %rax
  4004de:	54                   	push   %rsp
  4004df:	49 c7 c0 c0 06 40 00 	mov    $0x4006c0,%r8
  4004e6:	48 c7 c1 30 06 40 00 	mov    $0x400630,%rcx
  4004ed:	48 c7 c7 10 06 40 00 	mov    $0x400610,%rdi
  4004f4:	e8 c7 ff ff ff       	callq  4004c0 <__libc_start_main@plt>
  4004f9:	f4                   	hlt    
  4004fa:	90                   	nop
  4004fb:	90                   	nop

00000000004004fc <call_gmon_start>:
  4004fc:	48 83 ec 08          	sub    $0x8,%rsp
  400500:	48 8b 05 d9 0a 20 00 	mov    0x200ad9(%rip),%rax        # 600fe0 <_DYNAMIC+0x190>
  400507:	48 85 c0             	test   %rax,%rax
  40050a:	74 02                	je     40050e <call_gmon_start+0x12>
  40050c:	ff d0                	callq  *%rax
  40050e:	48 83 c4 08          	add    $0x8,%rsp
  400512:	c3                   	retq   
  400513:	90                   	nop
  400514:	90                   	nop
  400515:	90                   	nop
  400516:	90                   	nop
  400517:	90                   	nop
  400518:	90                   	nop
  400519:	90                   	nop
  40051a:	90                   	nop
  40051b:	90                   	nop
  40051c:	90                   	nop
  40051d:	90                   	nop
  40051e:	90                   	nop
  40051f:	90                   	nop

0000000000400520 <__do_global_dtors_aux>:
  400520:	55                   	push   %rbp
  400521:	48 89 e5             	mov    %rsp,%rbp
  400524:	53                   	push   %rbx
  400525:	48 83 ec 08          	sub    $0x8,%rsp
  400529:	80 3d 00 0b 20 00 00 	cmpb   $0x0,0x200b00(%rip)        # 601030 <__bss_start>
  400530:	75 4b                	jne    40057d <__do_global_dtors_aux+0x5d>
  400532:	bb 40 0e 60 00       	mov    $0x600e40,%ebx
  400537:	48 8b 05 fa 0a 20 00 	mov    0x200afa(%rip),%rax        # 601038 <dtor_idx.6533>
  40053e:	48 81 eb 38 0e 60 00 	sub    $0x600e38,%rbx
  400545:	48 c1 fb 03          	sar    $0x3,%rbx
  400549:	48 83 eb 01          	sub    $0x1,%rbx
  40054d:	48 39 d8             	cmp    %rbx,%rax
  400550:	73 24                	jae    400576 <__do_global_dtors_aux+0x56>
  400552:	66 0f 1f 44 00 00    	nopw   0x0(%rax,%rax,1)
  400558:	48 83 c0 01          	add    $0x1,%rax
  40055c:	48 89 05 d5 0a 20 00 	mov    %rax,0x200ad5(%rip)        # 601038 <dtor_idx.6533>
  400563:	ff 14 c5 38 0e 60 00 	callq  *0x600e38(,%rax,8)
  40056a:	48 8b 05 c7 0a 20 00 	mov    0x200ac7(%rip),%rax        # 601038 <dtor_idx.6533>
  400571:	48 39 d8             	cmp    %rbx,%rax
  400574:	72 e2                	jb     400558 <__do_global_dtors_aux+0x38>
  400576:	c6 05 b3 0a 20 00 01 	movb   $0x1,0x200ab3(%rip)        # 601030 <__bss_start>
  40057d:	48 83 c4 08          	add    $0x8,%rsp
  400581:	5b                   	pop    %rbx
  400582:	5d                   	pop    %rbp
  400583:	c3                   	retq   
  400584:	66 66 66 2e 0f 1f 84 	data32 data32 nopw %cs:0x0(%rax,%rax,1)
  40058b:	00 00 00 00 00 

0000000000400590 <frame_dummy>:
  400590:	48 83 3d b0 08 20 00 	cmpq   $0x0,0x2008b0(%rip)        # 600e48 <__JCR_END__>
  400597:	00 
  400598:	55                   	push   %rbp
  400599:	48 89 e5             	mov    %rsp,%rbp
  40059c:	74 12                	je     4005b0 <frame_dummy+0x20>
  40059e:	b8 00 00 00 00       	mov    $0x0,%eax
  4005a3:	48 85 c0             	test   %rax,%rax
  4005a6:	74 08                	je     4005b0 <frame_dummy+0x20>
  4005a8:	5d                   	pop    %rbp
  4005a9:	bf 48 0e 60 00       	mov    $0x600e48,%edi
  4005ae:	ff e0                	jmpq   *%rax
  4005b0:	5d                   	pop    %rbp
  4005b1:	c3                   	retq   
  4005b2:	90                   	nop
  4005b3:	90                   	nop

00000000004005b4 <bar>:
  4005b4:	55                   	push   %rbp
  4005b5:	48 89 e5             	mov    %rsp,%rbp
  4005b8:	48 83 ec 20          	sub    $0x20,%rsp
  4005bc:	48 89 7d e8          	mov    %rdi,-0x18(%rbp)
  4005c0:	64 48 8b 04 25 28 00 	mov    %fs:0x28,%rax
  4005c7:	00 00 
  4005c9:	48 89 45 f8          	mov    %rax,-0x8(%rbp)
  4005cd:	31 c0                	xor    %eax,%eax
  4005cf:	48 8b 55 e8          	mov    -0x18(%rbp),%rdx
  4005d3:	48 8d 45 f0          	lea    -0x10(%rbp),%rax
  4005d7:	48 89 d6             	mov    %rdx,%rsi
  4005da:	48 89 c7             	mov    %rax,%rdi
  4005dd:	e8 ae fe ff ff       	callq  400490 <strcpy@plt>
  4005e2:	48 8b 45 f8          	mov    -0x8(%rbp),%rax
  4005e6:	64 48 33 04 25 28 00 	xor    %fs:0x28,%rax
  4005ed:	00 00 
  4005ef:	74 05                	je     4005f6 <bar+0x42>
  4005f1:	e8 aa fe ff ff       	callq  4004a0 <__stack_chk_fail@plt>
  4005f6:	c9                   	leaveq 
  4005f7:	c3                   	retq   

00000000004005f8 <foo>:
  4005f8:	55                   	push   %rbp
  4005f9:	48 89 e5             	mov    %rsp,%rbp
  4005fc:	b8 1c 07 40 00       	mov    $0x40071c,%eax
  400601:	48 89 c7             	mov    %rax,%rdi
  400604:	b8 00 00 00 00       	mov    $0x0,%eax
  400609:	e8 a2 fe ff ff       	callq  4004b0 <printf@plt>
  40060e:	5d                   	pop    %rbp
  40060f:	c3                   	retq   

0000000000400610 <main>:
  400610:	55                   	push   %rbp
  400611:	48 89 e5             	mov    %rsp,%rbp
  400614:	bf 2c 07 40 00       	mov    $0x40072c,%edi
  400619:	e8 96 ff ff ff       	callq  4005b4 <bar>
  40061e:	b8 00 00 00 00       	mov    $0x0,%eax
  400623:	e8 d0 ff ff ff       	callq  4005f8 <foo>
  400628:	b8 00 00 00 00       	mov    $0x0,%eax
  40062d:	5d                   	pop    %rbp
  40062e:	c3                   	retq   
  40062f:	90                   	nop

0000000000400630 <__libc_csu_init>:
  400630:	48 89 6c 24 d8       	mov    %rbp,-0x28(%rsp)
  400635:	4c 89 64 24 e0       	mov    %r12,-0x20(%rsp)
  40063a:	48 8d 2d e3 07 20 00 	lea    0x2007e3(%rip),%rbp        # 600e24 <__init_array_end>
  400641:	4c 8d 25 dc 07 20 00 	lea    0x2007dc(%rip),%r12        # 600e24 <__init_array_end>
  400648:	4c 89 6c 24 e8       	mov    %r13,-0x18(%rsp)
  40064d:	4c 89 74 24 f0       	mov    %r14,-0x10(%rsp)
  400652:	4c 89 7c 24 f8       	mov    %r15,-0x8(%rsp)
  400657:	48 89 5c 24 d0       	mov    %rbx,-0x30(%rsp)
  40065c:	48 83 ec 38          	sub    $0x38,%rsp
  400660:	4c 29 e5             	sub    %r12,%rbp
  400663:	41 89 fd             	mov    %edi,%r13d
  400666:	49 89 f6             	mov    %rsi,%r14
  400669:	48 c1 fd 03          	sar    $0x3,%rbp
  40066d:	49 89 d7             	mov    %rdx,%r15
  400670:	e8 eb fd ff ff       	callq  400460 <_init>
  400675:	48 85 ed             	test   %rbp,%rbp
  400678:	74 1c                	je     400696 <__libc_csu_init+0x66>
  40067a:	31 db                	xor    %ebx,%ebx
  40067c:	0f 1f 40 00          	nopl   0x0(%rax)
  400680:	4c 89 fa             	mov    %r15,%rdx
  400683:	4c 89 f6             	mov    %r14,%rsi
  400686:	44 89 ef             	mov    %r13d,%edi
  400689:	41 ff 14 dc          	callq  *(%r12,%rbx,8)
  40068d:	48 83 c3 01          	add    $0x1,%rbx
  400691:	48 39 eb             	cmp    %rbp,%rbx
  400694:	75 ea                	jne    400680 <__libc_csu_init+0x50>
  400696:	48 8b 5c 24 08       	mov    0x8(%rsp),%rbx
  40069b:	48 8b 6c 24 10       	mov    0x10(%rsp),%rbp
  4006a0:	4c 8b 64 24 18       	mov    0x18(%rsp),%r12
  4006a5:	4c 8b 6c 24 20       	mov    0x20(%rsp),%r13
  4006aa:	4c 8b 74 24 28       	mov    0x28(%rsp),%r14
  4006af:	4c 8b 7c 24 30       	mov    0x30(%rsp),%r15
  4006b4:	48 83 c4 38          	add    $0x38,%rsp
  4006b8:	c3                   	retq   
  4006b9:	0f 1f 80 00 00 00 00 	nopl   0x0(%rax)

00000000004006c0 <__libc_csu_fini>:
  4006c0:	f3 c3                	repz retq 
  4006c2:	90                   	nop
  4006c3:	90                   	nop
  4006c4:	90                   	nop
  4006c5:	90                   	nop
  4006c6:	90                   	nop
  4006c7:	90                   	nop
  4006c8:	90                   	nop
  4006c9:	90                   	nop
  4006ca:	90                   	nop
  4006cb:	90                   	nop
  4006cc:	90                   	nop
  4006cd:	90                   	nop
  4006ce:	90                   	nop
  4006cf:	90                   	nop

00000000004006d0 <__do_global_ctors_aux>:
  4006d0:	55                   	push   %rbp
  4006d1:	48 89 e5             	mov    %rsp,%rbp
  4006d4:	53                   	push   %rbx
  4006d5:	48 83 ec 08          	sub    $0x8,%rsp
  4006d9:	48 8b 05 48 07 20 00 	mov    0x200748(%rip),%rax        # 600e28 <__CTOR_LIST__>
  4006e0:	48 83 f8 ff          	cmp    $0xffffffffffffffff,%rax
  4006e4:	74 19                	je     4006ff <__do_global_ctors_aux+0x2f>
  4006e6:	bb 28 0e 60 00       	mov    $0x600e28,%ebx
  4006eb:	0f 1f 44 00 00       	nopl   0x0(%rax,%rax,1)
  4006f0:	48 83 eb 08          	sub    $0x8,%rbx
  4006f4:	ff d0                	callq  *%rax
  4006f6:	48 8b 03             	mov    (%rbx),%rax
  4006f9:	48 83 f8 ff          	cmp    $0xffffffffffffffff,%rax
  4006fd:	75 f1                	jne    4006f0 <__do_global_ctors_aux+0x20>
  4006ff:	48 83 c4 08          	add    $0x8,%rsp
  400703:	5b                   	pop    %rbx
  400704:	5d                   	pop    %rbp
  400705:	c3                   	retq   
  400706:	90                   	nop
  400707:	90                   	nop

Disassembly of section .fini:

0000000000400708 <_fini>:
  400708:	48 83 ec 08          	sub    $0x8,%rsp
  40070c:	e8 0f fe ff ff       	callq  400520 <__do_global_dtors_aux>
  400711:	48 83 c4 08          	add    $0x8,%rsp
  400715:	c3                   	retq   
